; Function Attrs: mustprogress null_pointer_is_valid sspstrong uwtable
define internal void @_ZL26bluetooth_device_tap_resetPv(ptr noundef %0) #0 {
  %2 = load ptr, ptr %0, align 8
  %.not = icmp eq ptr %2, null
  br i1 %.not, label %4, label %3

3:                                                ; preds = %1
  tail call void %2(ptr noundef %0)
  br label %4

4:                                                ; preds = %3, %1
  ret void
}